; Function Attrs: nofree norecurse nosync nounwind memory(read, argmem: readwrite, inaccessiblemem: none) uwtable
define void @Abc_FrameRemapLits(ptr noundef captures(none) %0, i32 noundef %1, ptr noundef readonly captures(none) %2) local_unnamed_addr #16 {
  %4 = icmp sgt i32 %1, 0
  br i1 %4, label %.lr.ph, label %._crit_edge

.lr.ph:                                           ; preds = %3
  %5 = getelementptr i8, ptr %2, i64 8
  %.val = load ptr, ptr %5, align 8, !tbaa !11
  %wide.trip.count = zext nneg i32 %1 to i64
  br label %6

._crit_edge:                                      ; preds = %6, %3
  ret void

6:                                                ; preds = %.lr.ph, %6
  %indvars.iv = phi i64 [ 0, %.lr.ph ], [ %indvars.iv.next, %6 ]
  %7 = getelementptr inbounds nuw i32, ptr %0, i64 %indvars.iv
  %8 = load i32, ptr %7, align 4, !tbaa !10
  %9 = ashr i32 %8, 1
  %10 = sext i32 %9 to i64
  %11 = getelementptr inbounds i32, ptr %.val, i64 %10
  %12 = load i32, ptr %11, align 4, !tbaa !10
  %13 = and i32 %8, 1
  %14 = xor i32 %12, %13
  store i32 %14, ptr %7, align 4, !tbaa !10
  %indvars.iv.next = add nuw nsw i64 %indvars.iv, 1
  %exitcond.not = icmp eq i64 %indvars.iv.next, %wide.trip.count
  br i1 %exitcond.not, label %._crit_edge, label %6, !llvm.loop !170
}